target datalayout = "e-m:e-p270:32:32-p271:32:32-p272:64:64-i64:64-i128:128-f80:128-n8:16:32:64-S128"
target triple = "x86_64-unknown-linux-gnu"

%"struct.std::_Vector_base" = type { %"struct.std::_Vector_base<arrow::Datum, std::allocator<arrow::Datum>>::_Vector_impl" }
%"struct.std::_Vector_base<arrow::Datum, std::allocator<arrow::Datum>>::_Vector_impl" = type { %"struct.std::_Vector_base<arrow::Datum, std::allocator<arrow::Datum>>::_Vector_impl_data" }
%"struct.std::_Vector_base<arrow::Datum, std::allocator<arrow::Datum>>::_Vector_impl_data" = type { ptr, ptr, ptr }
%"struct.arrow::Datum" = type { %"class.std::variant" }
%"class.std::variant" = type { %"struct.std::__detail::__variant::_Variant_base.base", [7 x i8] }
%"struct.std::__detail::__variant::_Variant_base.base" = type { %"struct.std::__detail::__variant::_Move_assign_base.base" }
%"struct.std::__detail::__variant::_Move_assign_base.base" = type { %"struct.std::__detail::__variant::_Copy_assign_base.base" }
%"struct.std::__detail::__variant::_Copy_assign_base.base" = type { %"struct.std::__detail::__variant::_Move_ctor_base.base" }
%"struct.std::__detail::__variant::_Move_ctor_base.base" = type { %"struct.std::__detail::__variant::_Copy_ctor_base.base" }
%"struct.std::__detail::__variant::_Copy_ctor_base.base" = type { %"struct.std::__detail::__variant::_Variant_storage.base" }
%"struct.std::__detail::__variant::_Variant_storage.base" = type { %"union.std::__detail::__variant::_Variadic_union", i8 }
%"union.std::__detail::__variant::_Variadic_union" = type { %"union.std::__detail::__variant::_Variadic_union.19" }
%"union.std::__detail::__variant::_Variadic_union.19" = type { %"struct.std::__detail::__variant::_Uninitialized.20" }
%"struct.std::__detail::__variant::_Uninitialized.20" = type { %"struct.__gnu_cxx::__aligned_membuf" }
%"struct.__gnu_cxx::__aligned_membuf" = type { [16 x i8] }
%"struct.std::__detail::__variant::_Variant_storage" = type { %"union.std::__detail::__variant::_Variadic_union", i8, [7 x i8] }
%class.anon.211 = type { ptr }

; Function Attrs: mustprogress nounwind uwtable
define linkonce_odr void @_ZNSt8__detail9__variant15_Variadic_unionIJSt10shared_ptrIN5arrow5TableEEEEC2Ev(ptr noundef nonnull align 8 dereferenceable(16) %this) unnamed_addr #3 comdat align 2 {
entry:
  %this.addr = alloca ptr, align 8
  store ptr %this, ptr %this.addr, align 8
  ret void
}

; Function Attrs: mustprogress uwtable
define linkonce_odr void @_ZNSt8__detail9__variant15_Variadic_unionIJSt10shared_ptrIN5arrow11RecordBatchEES2_INS3_5TableEEEEC2Ev(ptr noundef nonnull align 8 dereferenceable(16) %this) unnamed_addr #0 comdat align 2 {
entry:
  %this.addr = alloca ptr, align 8
  store ptr %this, ptr %this.addr, align 8
  %this1 = load ptr, ptr %this.addr, align 8
  call void @_ZNSt8__detail9__variant15_Variadic_unionIJSt10shared_ptrIN5arrow5TableEEEEC2Ev(ptr noundef nonnull align 8 dereferenceable(16) %this1)
  ret void
}

; Function Attrs: mustprogress uwtable
define linkonce_odr void @_ZNSt8__detail9__variant15_Variadic_unionIJSt10shared_ptrIN5arrow12ChunkedArrayEES2_INS3_11RecordBatchEES2_INS3_5TableEEEEC2Ev(ptr noundef nonnull align 8 dereferenceable(16) %this) unnamed_addr #0 comdat align 2 {
entry:
  %this.addr = alloca ptr, align 8
  store ptr %this, ptr %this.addr, align 8
  %this1 = load ptr, ptr %this.addr, align 8
  call void @_ZNSt8__detail9__variant15_Variadic_unionIJSt10shared_ptrIN5arrow11RecordBatchEES2_INS3_5TableEEEEC2Ev(ptr noundef nonnull align 8 dereferenceable(16) %this1)
  ret void
}

; Function Attrs: mustprogress uwtable
define linkonce_odr void @_ZNSt8__detail9__variant15_Variadic_unionIJSt10shared_ptrIN5arrow9ArrayDataEES2_INS3_12ChunkedArrayEES2_INS3_11RecordBatchEES2_INS3_5TableEEEEC2Ev(ptr noundef nonnull align 8 dereferenceable(16) %this) unnamed_addr #0 comdat align 2 {
entry:
  %this.addr = alloca ptr, align 8
  store ptr %this, ptr %this.addr, align 8
  %this1 = load ptr, ptr %this.addr, align 8
  call void @_ZNSt8__detail9__variant15_Variadic_unionIJSt10shared_ptrIN5arrow12ChunkedArrayEES2_INS3_11RecordBatchEES2_INS3_5TableEEEEC2Ev(ptr noundef nonnull align 8 dereferenceable(16) %this1)
  ret void
}

; Function Attrs: mustprogress uwtable
define linkonce_odr void @_ZNSt8__detail9__variant15_Variadic_unionIJSt10shared_ptrIN5arrow6ScalarEES2_INS3_9ArrayDataEES2_INS3_12ChunkedArrayEES2_INS3_11RecordBatchEES2_INS3_5TableEEEEC2Ev(ptr noundef nonnull align 8 dereferenceable(16) %this) unnamed_addr #0 comdat align 2 {
entry:
  %this.addr = alloca ptr, align 8
  store ptr %this, ptr %this.addr, align 8
  %this1 = load ptr, ptr %this.addr, align 8
  call void @_ZNSt8__detail9__variant15_Variadic_unionIJSt10shared_ptrIN5arrow9ArrayDataEES2_INS3_12ChunkedArrayEES2_INS3_11RecordBatchEES2_INS3_5TableEEEEC2Ev(ptr noundef nonnull align 8 dereferenceable(16) %this1)
  ret void
}

; Function Attrs: mustprogress uwtable
define linkonce_odr void @_ZNSt8__detail9__variant15_Variadic_unionIJN5arrow5Datum5EmptyESt10shared_ptrINS2_6ScalarEES5_INS2_9ArrayDataEES5_INS2_12ChunkedArrayEES5_INS2_11RecordBatchEES5_INS2_5TableEEEEC2Ev(ptr noundef nonnull align 8 dereferenceable(16) %this) unnamed_addr #0 comdat align 2 {
entry:
  %this.addr = alloca ptr, align 8
  store ptr %this, ptr %this.addr, align 8
  %this1 = load ptr, ptr %this.addr, align 8
  call void @_ZNSt8__detail9__variant15_Variadic_unionIJSt10shared_ptrIN5arrow6ScalarEES2_INS3_9ArrayDataEES2_INS3_12ChunkedArrayEES2_INS3_11RecordBatchEES2_INS3_5TableEEEEC2Ev(ptr noundef nonnull align 8 dereferenceable(16) %this1)
  ret void
}

; Function Attrs: mustprogress uwtable
define linkonce_odr void @_ZNSt8__detail9__variant15__raw_idx_visitIZNS0_15_Copy_ctor_baseILb0EJN5arrow5Datum5EmptyESt10shared_ptrINS3_6ScalarEES6_INS3_9ArrayDataEES6_INS3_12ChunkedArrayEES6_INS3_11RecordBatchEES6_INS3_5TableEEEEC1ERKSH_EUlOT_T0_E_JRKSt7variantIJS5_S8_SA_SC_SE_SG_EEEEEvSL_DpOT0_(ptr noundef nonnull align 8 dereferenceable(8) %__visitor, ptr noundef nonnull align 8 dereferenceable(17) %__variants) #0 comdat {
entry:
  %__visitor.addr = alloca ptr, align 8
  %__variants.addr = alloca ptr, align 8
  store ptr %__visitor, ptr %__visitor.addr, align 8
  store ptr %__variants, ptr %__variants.addr, align 8
  %0 = load ptr, ptr %__visitor.addr, align 8
  %1 = load ptr, ptr %__variants.addr, align 8
  call void @_ZSt10__do_visitINSt8__detail9__variant20__variant_idx_cookieEZNS1_15_Copy_ctor_baseILb0EJN5arrow5Datum5EmptyESt10shared_ptrINS4_6ScalarEES7_INS4_9ArrayDataEES7_INS4_12ChunkedArrayEES7_INS4_11RecordBatchEES7_INS4_5TableEEEEC1ERKSI_EUlOT_T0_E_JRKSt7variantIJS6_S9_SB_SD_SF_SH_EEEEDcOSN_DpOT1_(ptr noundef nonnull align 8 dereferenceable(8) %0, ptr noundef nonnull align 8 dereferenceable(17) %1)
  ret void
}

; Function Attrs: mustprogress nounwind uwtable
define linkonce_odr noundef nonnull align 8 dereferenceable(17) ptr @_ZSt14__variant_castIJN5arrow5Datum5EmptyESt10shared_ptrINS0_6ScalarEES3_INS0_9ArrayDataEES3_INS0_12ChunkedArrayEES3_INS0_11RecordBatchEES3_INS0_5TableEEERKNSt8__detail9__variant15_Copy_ctor_baseILb0EJS2_S5_S7_S9_SB_SD_EEEEDcOT0_(ptr noundef nonnull align 8 dereferenceable(17) %__rhs) #3 comdat {
entry:
  %__rhs.addr = alloca ptr, align 8
  store ptr %__rhs, ptr %__rhs.addr, align 8
  %0 = load ptr, ptr %__rhs.addr, align 8
  ret ptr %0
}

; Function Attrs: mustprogress uwtable
define linkonce_odr void @_ZNSt8__detail9__variant16_Variant_storageILb0EJN5arrow5Datum5EmptyESt10shared_ptrINS2_6ScalarEES5_INS2_9ArrayDataEES5_INS2_12ChunkedArrayEES5_INS2_11RecordBatchEES5_INS2_5TableEEEEC2Ev(ptr noundef nonnull align 8 dereferenceable(17) %this) unnamed_addr #0 comdat align 2 {
entry:
  %this.addr = alloca ptr, align 8
  store ptr %this, ptr %this.addr, align 8
  %this1 = load ptr, ptr %this.addr, align 8
  %_M_u = getelementptr inbounds %"struct.std::__detail::__variant::_Variant_storage", ptr %this1, i32 0, i32 0
  call void @_ZNSt8__detail9__variant15_Variadic_unionIJN5arrow5Datum5EmptyESt10shared_ptrINS2_6ScalarEES5_INS2_9ArrayDataEES5_INS2_12ChunkedArrayEES5_INS2_11RecordBatchEES5_INS2_5TableEEEEC2Ev(ptr noundef nonnull align 8 dereferenceable(16) %_M_u)
  %_M_index = getelementptr inbounds %"struct.std::__detail::__variant::_Variant_storage", ptr %this1, i32 0, i32 1
  store i8 -1, ptr %_M_index, align 8
  ret void
}

; Function Attrs: mustprogress uwtable
define linkonce_odr void @_ZNSt8__detail9__variant15_Copy_ctor_baseILb0EJN5arrow5Datum5EmptyESt10shared_ptrINS2_6ScalarEES5_INS2_9ArrayDataEES5_INS2_12ChunkedArrayEES5_INS2_11RecordBatchEES5_INS2_5TableEEEEC2ERKSG_(ptr noundef nonnull align 8 dereferenceable(17) %this, ptr noundef nonnull align 8 dereferenceable(17) %__rhs) unnamed_addr #0 comdat align 2 personality ptr @__gxx_personality_v0 {
entry:
  %this.addr = alloca ptr, align 8
  %__rhs.addr = alloca ptr, align 8
  %ref.tmp = alloca %class.anon.211, align 8
  %exn.slot = alloca ptr, align 8
  %ehselector.slot = alloca i32, align 4
  store ptr %this, ptr %this.addr, align 8
  store ptr %__rhs, ptr %__rhs.addr, align 8
  %this1 = load ptr, ptr %this.addr, align 8
  call void @_ZNSt8__detail9__variant16_Variant_storageILb0EJN5arrow5Datum5EmptyESt10shared_ptrINS2_6ScalarEES5_INS2_9ArrayDataEES5_INS2_12ChunkedArrayEES5_INS2_11RecordBatchEES5_INS2_5TableEEEEC2Ev(ptr noundef nonnull align 8 dereferenceable(17) %this1)
  %0 = getelementptr inbounds %class.anon.211, ptr %ref.tmp, i32 0, i32 0
  store ptr %this1, ptr %0, align 8
  %1 = load ptr, ptr %__rhs.addr, align 8
  %call = invoke noundef nonnull align 8 dereferenceable(17) ptr @_ZSt14__variant_castIJN5arrow5Datum5EmptyESt10shared_ptrINS0_6ScalarEES3_INS0_9ArrayDataEES3_INS0_12ChunkedArrayEES3_INS0_11RecordBatchEES3_INS0_5TableEEERKNSt8__detail9__variant15_Copy_ctor_baseILb0EJS2_S5_S7_S9_SB_SD_EEEEDcOT0_(ptr noundef nonnull align 8 dereferenceable(17) %1)
          to label %invoke.cont unwind label %lpad

invoke.cont:                                      ; preds = %entry
  invoke void @_ZNSt8__detail9__variant15__raw_idx_visitIZNS0_15_Copy_ctor_baseILb0EJN5arrow5Datum5EmptyESt10shared_ptrINS3_6ScalarEES6_INS3_9ArrayDataEES6_INS3_12ChunkedArrayEES6_INS3_11RecordBatchEES6_INS3_5TableEEEEC1ERKSH_EUlOT_T0_E_JRKSt7variantIJS5_S8_SA_SC_SE_SG_EEEEEvSL_DpOT0_(ptr noundef nonnull align 8 dereferenceable(8) %ref.tmp, ptr noundef nonnull align 8 dereferenceable(17) %call)
          to label %invoke.cont2 unwind label %lpad

invoke.cont2:                                     ; preds = %invoke.cont
  %2 = load ptr, ptr %__rhs.addr, align 8
  %_M_index = getelementptr inbounds %"struct.std::__detail::__variant::_Variant_storage", ptr %2, i32 0, i32 1
  %3 = load i8, ptr %_M_index, align 8
  %_M_index3 = getelementptr inbounds %"struct.std::__detail::__variant::_Variant_storage", ptr %this1, i32 0, i32 1
  store i8 %3, ptr %_M_index3, align 8
  ret void

lpad:                                             ; preds = %invoke.cont, %entry
  %4 = landingpad { ptr, i32 }
          cleanup
  %5 = extractvalue { ptr, i32 } %4, 0
  store ptr %5, ptr %exn.slot, align 8
  %6 = extractvalue { ptr, i32 } %4, 1
  store i32 %6, ptr %ehselector.slot, align 4
  call void @_ZNSt8__detail9__variant16_Variant_storageILb0EJN5arrow5Datum5EmptyESt10shared_ptrINS2_6ScalarEES5_INS2_9ArrayDataEES5_INS2_12ChunkedArrayEES5_INS2_11RecordBatchEES5_INS2_5TableEEEED2Ev(ptr noundef nonnull align 8 dereferenceable(17) %this1) #1
  br label %eh.resume

eh.resume:                                        ; preds = %lpad
  %exn = load ptr, ptr %exn.slot, align 8
  %sel = load i32, ptr %ehselector.slot, align 4
  %lpad.val = insertvalue { ptr, i32 } poison, ptr %exn, 0
  %lpad.val4 = insertvalue { ptr, i32 } %lpad.val, i32 %sel, 1
  resume { ptr, i32 } %lpad.val4
}

; Function Attrs: mustprogress uwtable
define linkonce_odr void @_ZNSt8__detail9__variant15_Move_ctor_baseILb0EJN5arrow5Datum5EmptyESt10shared_ptrINS2_6ScalarEES5_INS2_9ArrayDataEES5_INS2_12ChunkedArrayEES5_INS2_11RecordBatchEES5_INS2_5TableEEEEC2ERKSG_(ptr noundef nonnull align 8 dereferenceable(17) %this, ptr noundef nonnull align 8 dereferenceable(17) %0) unnamed_addr #0 comdat align 2 {
entry:
  %this.addr = alloca ptr, align 8
  %.addr = alloca ptr, align 8
  store ptr %this, ptr %this.addr, align 8
  store ptr %0, ptr %.addr, align 8
  %this1 = load ptr, ptr %this.addr, align 8
  %1 = load ptr, ptr %.addr, align 8
  call void @_ZNSt8__detail9__variant15_Copy_ctor_baseILb0EJN5arrow5Datum5EmptyESt10shared_ptrINS2_6ScalarEES5_INS2_9ArrayDataEES5_INS2_12ChunkedArrayEES5_INS2_11RecordBatchEES5_INS2_5TableEEEEC2ERKSG_(ptr noundef nonnull align 8 dereferenceable(17) %this1, ptr noundef nonnull align 8 dereferenceable(17) %1)
  ret void
}

; Function Attrs: mustprogress uwtable
define linkonce_odr void @_ZNSt8__detail9__variant17_Copy_assign_baseILb0EJN5arrow5Datum5EmptyESt10shared_ptrINS2_6ScalarEES5_INS2_9ArrayDataEES5_INS2_12ChunkedArrayEES5_INS2_11RecordBatchEES5_INS2_5TableEEEEC2ERKSG_(ptr noundef nonnull align 8 dereferenceable(17) %this, ptr noundef nonnull align 8 dereferenceable(17) %0) unnamed_addr #0 comdat align 2 {
entry:
  %this.addr = alloca ptr, align 8
  %.addr = alloca ptr, align 8
  store ptr %this, ptr %this.addr, align 8
  store ptr %0, ptr %.addr, align 8
  %this1 = load ptr, ptr %this.addr, align 8
  %1 = load ptr, ptr %.addr, align 8
  call void @_ZNSt8__detail9__variant15_Move_ctor_baseILb0EJN5arrow5Datum5EmptyESt10shared_ptrINS2_6ScalarEES5_INS2_9ArrayDataEES5_INS2_12ChunkedArrayEES5_INS2_11RecordBatchEES5_INS2_5TableEEEEC2ERKSG_(ptr noundef nonnull align 8 dereferenceable(17) %this1, ptr noundef nonnull align 8 dereferenceable(17) %1)
  ret void
}

; Function Attrs: mustprogress uwtable
define linkonce_odr void @_ZNSt8__detail9__variant17_Move_assign_baseILb0EJN5arrow5Datum5EmptyESt10shared_ptrINS2_6ScalarEES5_INS2_9ArrayDataEES5_INS2_12ChunkedArrayEES5_INS2_11RecordBatchEES5_INS2_5TableEEEEC2ERKSG_(ptr noundef nonnull align 8 dereferenceable(17) %this, ptr noundef nonnull align 8 dereferenceable(17) %0) unnamed_addr #0 comdat align 2 {
entry:
  %this.addr = alloca ptr, align 8
  %.addr = alloca ptr, align 8
  store ptr %this, ptr %this.addr, align 8
  store ptr %0, ptr %.addr, align 8
  %this1 = load ptr, ptr %this.addr, align 8
  %1 = load ptr, ptr %.addr, align 8
  call void @_ZNSt8__detail9__variant17_Copy_assign_baseILb0EJN5arrow5Datum5EmptyESt10shared_ptrINS2_6ScalarEES5_INS2_9ArrayDataEES5_INS2_12ChunkedArrayEES5_INS2_11RecordBatchEES5_INS2_5TableEEEEC2ERKSG_(ptr noundef nonnull align 8 dereferenceable(17) %this1, ptr noundef nonnull align 8 dereferenceable(17) %1)
  ret void
}

; Function Attrs: mustprogress uwtable
define linkonce_odr void @_ZNSt8__detail9__variant13_Variant_baseIJN5arrow5Datum5EmptyESt10shared_ptrINS2_6ScalarEES5_INS2_9ArrayDataEES5_INS2_12ChunkedArrayEES5_INS2_11RecordBatchEES5_INS2_5TableEEEEC2ERKSG_(ptr noundef nonnull align 8 dereferenceable(17) %this, ptr noundef nonnull align 8 dereferenceable(17) %0) unnamed_addr #0 comdat align 2 {
entry:
  %this.addr = alloca ptr, align 8
  %.addr = alloca ptr, align 8
  store ptr %this, ptr %this.addr, align 8
  store ptr %0, ptr %.addr, align 8
  %this1 = load ptr, ptr %this.addr, align 8
  %1 = load ptr, ptr %.addr, align 8
  call void @_ZNSt8__detail9__variant17_Move_assign_baseILb0EJN5arrow5Datum5EmptyESt10shared_ptrINS2_6ScalarEES5_INS2_9ArrayDataEES5_INS2_12ChunkedArrayEES5_INS2_11RecordBatchEES5_INS2_5TableEEEEC2ERKSG_(ptr noundef nonnull align 8 dereferenceable(17) %this1, ptr noundef nonnull align 8 dereferenceable(17) %1)
  ret void
}

; Function Attrs: mustprogress uwtable
define linkonce_odr void @_ZNSt7variantIJN5arrow5Datum5EmptyESt10shared_ptrINS0_6ScalarEES3_INS0_9ArrayDataEES3_INS0_12ChunkedArrayEES3_INS0_11RecordBatchEES3_INS0_5TableEEEEC2ERKSE_(ptr noundef nonnull align 8 dereferenceable(17) %this, ptr noundef nonnull align 8 dereferenceable(17) %__rhs) unnamed_addr #0 comdat align 2 {
entry:
  %this.addr = alloca ptr, align 8
  %__rhs.addr = alloca ptr, align 8
  store ptr %this, ptr %this.addr, align 8
  store ptr %__rhs, ptr %__rhs.addr, align 8
  %this1 = load ptr, ptr %this.addr, align 8
  %0 = load ptr, ptr %__rhs.addr, align 8
  call void @_ZNSt8__detail9__variant13_Variant_baseIJN5arrow5Datum5EmptyESt10shared_ptrINS2_6ScalarEES5_INS2_9ArrayDataEES5_INS2_12ChunkedArrayEES5_INS2_11RecordBatchEES5_INS2_5TableEEEEC2ERKSG_(ptr noundef nonnull align 8 dereferenceable(17) %this1, ptr noundef nonnull align 8 dereferenceable(17) %0)
  ret void
}

; Function Attrs: mustprogress uwtable
define linkonce_odr void @_ZN5arrow5DatumC2ERKS0_(ptr noundef nonnull align 8 dereferenceable(24) %this, ptr noundef nonnull align 8 dereferenceable(24) %other) unnamed_addr #0 comdat align 2 {
entry:
  %this.addr = alloca ptr, align 8
  %other.addr = alloca ptr, align 8
  store ptr %this, ptr %this.addr, align 8
  store ptr %other, ptr %other.addr, align 8
  %this1 = load ptr, ptr %this.addr, align 8
  %value = getelementptr inbounds %"struct.arrow::Datum", ptr %this1, i32 0, i32 0
  %0 = load ptr, ptr %other.addr, align 8
  %value2 = getelementptr inbounds %"struct.arrow::Datum", ptr %0, i32 0, i32 0
  call void @_ZNSt7variantIJN5arrow5Datum5EmptyESt10shared_ptrINS0_6ScalarEES3_INS0_9ArrayDataEES3_INS0_12ChunkedArrayEES3_INS0_11RecordBatchEES3_INS0_5TableEEEEC2ERKSE_(ptr noundef nonnull align 8 dereferenceable(17) %value, ptr noundef nonnull align 8 dereferenceable(17) %value2)
  ret void
}

; Function Attrs: mustprogress nounwind uwtable
define linkonce_odr noundef nonnull align 8 dereferenceable(24) ptr @_ZNKSt6vectorIN5arrow5DatumESaIS1_EEixEm(ptr noundef nonnull align 8 dereferenceable(24) %this, i64 noundef %__n) #3 comdat align 2 {
entry:
  %this.addr = alloca ptr, align 8
  %__n.addr = alloca i64, align 8
  store ptr %this, ptr %this.addr, align 8
  store i64 %__n, ptr %__n.addr, align 8
  %this1 = load ptr, ptr %this.addr, align 8
  %_M_impl = getelementptr inbounds %"struct.std::_Vector_base", ptr %this1, i32 0, i32 0
  %_M_start = getelementptr inbounds %"struct.std::_Vector_base<arrow::Datum, std::allocator<arrow::Datum>>::_Vector_impl_data", ptr %_M_impl, i32 0, i32 0
  %0 = load ptr, ptr %_M_start, align 8
  %1 = load i64, ptr %__n.addr, align 8
  %add.ptr = getelementptr inbounds %"struct.arrow::Datum", ptr %0, i64 %1
  ret ptr %add.ptr
}

; Function Attrs: mustprogress nounwind uwtable
define linkonce_odr noundef i64 @_ZNKSt6vectorIN5arrow5DatumESaIS1_EE4sizeEv(ptr noundef nonnull align 8 dereferenceable(24) %this) #3 comdat align 2 {
entry:
  %this.addr = alloca ptr, align 8
  store ptr %this, ptr %this.addr, align 8
  %this1 = load ptr, ptr %this.addr, align 8
  %_M_impl = getelementptr inbounds %"struct.std::_Vector_base", ptr %this1, i32 0, i32 0
  %_M_finish = getelementptr inbounds %"struct.std::_Vector_base<arrow::Datum, std::allocator<arrow::Datum>>::_Vector_impl_data", ptr %_M_impl, i32 0, i32 1
  %0 = load ptr, ptr %_M_finish, align 8
  %_M_impl2 = getelementptr inbounds %"struct.std::_Vector_base", ptr %this1, i32 0, i32 0
  %_M_start = getelementptr inbounds %"struct.std::_Vector_base<arrow::Datum, std::allocator<arrow::Datum>>::_Vector_impl_data", ptr %_M_impl2, i32 0, i32 0
  %1 = load ptr, ptr %_M_start, align 8
  %sub.ptr.lhs.cast = ptrtoint ptr %0 to i64
  %sub.ptr.rhs.cast = ptrtoint ptr %1 to i64
  %sub.ptr.sub = sub i64 %sub.ptr.lhs.cast, %sub.ptr.rhs.cast
  %sub.ptr.div = sdiv exact i64 %sub.ptr.sub, 24
  ret i64 %sub.ptr.div
}

; Function Attrs: mustprogress uwtable
define internal void @_ZN5arrow7compute6detail12_GLOBAL__N_117ScalarAggExecutor11WrapResultsERKSt6vectorINS_5DatumESaIS5_EES9_(ptr noalias sret(%"struct.arrow::Datum") align 8 %agg.result, ptr noundef nonnull align 8 dereferenceable(208) %this, ptr noundef nonnull align 8 dereferenceable(24) %0, ptr noundef nonnull align 8 dereferenceable(24) %outputs) unnamed_addr #0 align 2 {
entry:
  %result.ptr = alloca ptr, align 8
  %this.addr = alloca ptr, align 8
  %.addr = alloca ptr, align 8
  %outputs.addr = alloca ptr, align 8
  store ptr %agg.result, ptr %result.ptr, align 8
  store ptr %this, ptr %this.addr, align 8
  store ptr %0, ptr %.addr, align 8
  store ptr %outputs, ptr %outputs.addr, align 8
  br label %while.cond

while.cond:                                       ; preds = %while.body, %entry
  br i1 false, label %while.body, label %while.end

while.body:                                       ; preds = %while.cond
  br label %while.cond, !llvm.loop !84

while.end:                                        ; preds = %while.cond
  br label %while.cond2

while.cond2:                                      ; preds = %while.body3, %while.end
  br i1 false, label %while.body3, label %while.end4

while.body3:                                      ; preds = %while.cond2
  %1 = load ptr, ptr %outputs.addr, align 8
  %call = call noundef i64 @_ZNKSt6vectorIN5arrow5DatumESaIS1_EE4sizeEv(ptr noundef nonnull align 8 dereferenceable(24) %1) #1
  br label %while.cond2, !llvm.loop !85

while.end4:                                       ; preds = %while.cond2
  br label %while.cond5

while.cond5:                                      ; preds = %while.body6, %while.end4
  br i1 false, label %while.body6, label %while.end7

while.body6:                                      ; preds = %while.cond5
  br label %while.cond5, !llvm.loop !86

while.end7:                                       ; preds = %while.cond5
  %2 = load ptr, ptr %outputs.addr, align 8
  %call8 = call noundef nonnull align 8 dereferenceable(24) ptr @_ZNKSt6vectorIN5arrow5DatumESaIS1_EEixEm(ptr noundef nonnull align 8 dereferenceable(24) %2, i64 noundef 0) #1
  call void @_ZN5arrow5DatumC2ERKS0_(ptr noundef nonnull align 8 dereferenceable(24) %agg.result, ptr noundef nonnull align 8 dereferenceable(24) %call8)
  ret void
}