; Function Attrs: mustprogress uwtable
define internal void @_ZN5arrow7compute6detail12_GLOBAL__N_117ScalarAggExecutor11WrapResultsERKSt6vectorINS_5DatumESaIS5_EES9_(ptr noalias sret(%"struct.arrow::Datum") align 8 %agg.result, ptr nocapture nonnull readnone align 8 %this, ptr nocapture nonnull readnone align 8 %0, ptr nocapture noundef nonnull readonly align 8 dereferenceable(24) %outputs) unnamed_addr #0 align 2 personality ptr @__gxx_personality_v0 {
entry:
  %ref.tmp.i.i.i.i.i.i.i = alloca %class.anon.211, align 8
  %1 = load ptr, ptr %outputs, align 8
  call void @llvm.lifetime.start.p0(i64 8, ptr nonnull %ref.tmp.i.i.i.i.i.i.i)
  %_M_index.i.i.i.i.i.i.i.i = getelementptr inbounds i8, ptr %agg.result, i64 16
  store i8 -1, ptr %_M_index.i.i.i.i.i.i.i.i, align 8
  store ptr %agg.result, ptr %ref.tmp.i.i.i.i.i.i.i, align 8
  invoke void @_ZSt10__do_visitINSt8__detail9__variant20__variant_idx_cookieEZNS1_15_Copy_ctor_baseILb0EJN5arrow5Datum5EmptyESt10shared_ptrINS4_6ScalarEES7_INS4_9ArrayDataEES7_INS4_12ChunkedArrayEES7_INS4_11RecordBatchEES7_INS4_5TableEEEEC1ERKSI_EUlOT_T0_E_JRKSt7variantIJS6_S9_SB_SD_SF_SH_EEEEDcOSN_DpOT1_(ptr noundef nonnull align 8 dereferenceable(8) %ref.tmp.i.i.i.i.i.i.i, ptr noundef nonnull align 8 dereferenceable(17) %1)
          to label %_ZN5arrow5DatumC2ERKS0_.exit unwind label %lpad.i.i.i.i.i.i.i

lpad.i.i.i.i.i.i.i:                               ; preds = %entry
  %2 = landingpad { ptr, i32 }
          cleanup
  call void @_ZNSt8__detail9__variant16_Variant_storageILb0EJN5arrow5Datum5EmptyESt10shared_ptrINS2_6ScalarEES5_INS2_9ArrayDataEES5_INS2_12ChunkedArrayEES5_INS2_11RecordBatchEES5_INS2_5TableEEEED2Ev(ptr noundef nonnull align 8 dereferenceable(17) %agg.result) #22
  resume { ptr, i32 } %2

_ZN5arrow5DatumC2ERKS0_.exit:                     ; preds = %entry
  %_M_index.i.i.i.i.i.i.i = getelementptr inbounds i8, ptr %1, i64 16
  %3 = load i8, ptr %_M_index.i.i.i.i.i.i.i, align 8
  store i8 %3, ptr %_M_index.i.i.i.i.i.i.i.i, align 8
  call void @llvm.lifetime.end.p0(i64 8, ptr nonnull %ref.tmp.i.i.i.i.i.i.i)
  ret void
}